---
triple:          'x86_64-apple-darwin'
binary-path:     '/Users/lajiang/Documents/learning proj/Exe_Cplspls/in-depth c++11/in-depth c++11/ch4_3'
relocations:
  - { offsetInCU: 0x4B8A, offset: 0x4B8A, size: 0x8, addend: 0x0, symName: __ZNSt3__14endlB8ue170006IcNS_11char_traitsIcEEEERNS_13basic_ostreamIT_T0_EES7_, symObjAddr: 0x1A0, symBinAddr: 0x100000EB0, symSize: 0x50 }
  - { offsetInCU: 0x5770, offset: 0x5770, size: 0x8, addend: 0x0, symName: __ZNSt3__119__libcpp_deallocateB8ue170006EPvmm, symObjAddr: 0xB50, symBinAddr: 0x100001860, symSize: 0x60 }
  - { offsetInCU: 0x57D5, offset: 0x57D5, size: 0x8, addend: 0x0, symName: __ZNSt3__124__is_overaligned_for_newB8ue170006Em, symObjAddr: 0xBB0, symBinAddr: 0x1000018C0, symSize: 0x20 }
  - { offsetInCU: 0x5803, offset: 0x5803, size: 0x8, addend: 0x0, symName: __ZNSt3__127__do_deallocate_handle_sizeB8ue170006IJSt11align_val_tEEEvPvmDpT_, symObjAddr: 0xBD0, symBinAddr: 0x1000018E0, symSize: 0x30 }
  - { offsetInCU: 0x5856, offset: 0x5856, size: 0x8, addend: 0x0, symName: __ZNSt3__127__do_deallocate_handle_sizeB8ue170006IJEEEvPvmDpT_, symObjAddr: 0xC00, symBinAddr: 0x100001910, symSize: 0x20 }
  - { offsetInCU: 0x5894, offset: 0x5894, size: 0x8, addend: 0x0, symName: __ZNSt3__124__libcpp_operator_deleteB8ue170006IJPvSt11align_val_tEEEvDpT_, symObjAddr: 0xC20, symBinAddr: 0x100001930, symSize: 0x30 }
  - { offsetInCU: 0x58DD, offset: 0x58DD, size: 0x8, addend: 0x0, symName: __ZNSt3__124__libcpp_operator_deleteB8ue170006IJPvEEEvDpT_, symObjAddr: 0xC50, symBinAddr: 0x100001960, symSize: 0x20 }
  - { offsetInCU: 0x5912, offset: 0x5912, size: 0x8, addend: 0x0, symName: __ZNSt3__134__libcpp_atomic_refcount_decrementB8ue170006IlEET_RS1_, symObjAddr: 0xE20, symBinAddr: 0x100001B30, symSize: 0x30 }
  - { offsetInCU: 0x5947, offset: 0x5947, size: 0x8, addend: 0x0, symName: __ZNSt3__134__libcpp_atomic_refcount_incrementB8ue170006IlEET_RS1_, symObjAddr: 0xEC0, symBinAddr: 0x100001BD0, symSize: 0x30 }
  - { offsetInCU: 0x597C, offset: 0x597C, size: 0x8, addend: 0x0, symName: __ZNSt3__121__libcpp_relaxed_loadB8ue170006IlEET_PKS1_, symObjAddr: 0xF90, symBinAddr: 0x100001CA0, symSize: 0x20 }
  - { offsetInCU: 0x59B1, offset: 0x59B1, size: 0x8, addend: 0x0, symName: __ZNSt3__19use_facetB8ue170006INS_5ctypeIcEEEERKT_RKNS_6localeE, symObjAddr: 0x1030, symBinAddr: 0x100001D40, symSize: 0x30 }
  - { offsetInCU: 0x8651, offset: 0x8651, size: 0x8, addend: 0x0, symName: _main, symObjAddr: 0x0, symBinAddr: 0x100000D10, symSize: 0xD0 }
  - { offsetInCU: 0x86F8, offset: 0x86F8, size: 0x8, addend: 0x0, symName: __ZNSt3__110shared_ptrIiEC1B8ue170006IivEEPT_, symObjAddr: 0xD0, symBinAddr: 0x100000DE0, symSize: 0x30 }
  - { offsetInCU: 0x8775, offset: 0x8775, size: 0x8, addend: 0x0, symName: __ZNSt3__18weak_ptrIiEC1IiEERKNS_10shared_ptrIT_EENS_9enable_ifIXsr17__compatible_withIS4_iEE5valueEPNS_5__natEE4typeE, symObjAddr: 0x100, symBinAddr: 0x100000E10, symSize: 0x30 }
  - { offsetInCU: 0x87C4, offset: 0x87C4, size: 0x8, addend: 0x0, symName: __ZNKSt3__18weak_ptrIiE9use_countB8ue170006Ev, symObjAddr: 0x130, symBinAddr: 0x100000E40, symSize: 0x50 }
  - { offsetInCU: 0x8896, offset: 0x8896, size: 0x8, addend: 0x0, symName: __ZNSt3__113basic_ostreamIcNS_11char_traitsIcEEElsB8ue170006EPFRS3_S4_E, symObjAddr: 0x180, symBinAddr: 0x100000E90, symSize: 0x20 }
  - { offsetInCU: 0x88C8, offset: 0x88C8, size: 0x8, addend: 0x0, symName: __ZNSt3__18weak_ptrIiED1Ev, symObjAddr: 0x1F0, symBinAddr: 0x100000F00, symSize: 0x20 }
  - { offsetInCU: 0x88F2, offset: 0x88F2, size: 0x8, addend: 0x0, symName: __ZNSt3__110shared_ptrIiED1B8ue170006Ev, symObjAddr: 0x210, symBinAddr: 0x100000F20, symSize: 0x20 }
  - { offsetInCU: 0x891A, offset: 0x891A, size: 0x8, addend: 0x0, symName: __ZNSt3__110shared_ptrIiEC2B8ue170006IivEEPT_, symObjAddr: 0x230, symBinAddr: 0x100000F40, symSize: 0xE0 }
  - { offsetInCU: 0x8A02, offset: 0x8A02, size: 0x8, addend: 0x0, symName: __ZNSt3__110unique_ptrIiNS_14default_deleteIiEEEC1B8ue170006ILb1EvEEPi, symObjAddr: 0x310, symBinAddr: 0x100001020, symSize: 0x30 }
  - { offsetInCU: 0x8A66, offset: 0x8A66, size: 0x8, addend: 0x0, symName: __ZNSt3__19allocatorIiEC1B8ue170006Ev, symObjAddr: 0x340, symBinAddr: 0x100001050, symSize: 0x20 }
  - { offsetInCU: 0x8B29, offset: 0x8B29, size: 0x8, addend: 0x0, symName: __ZNSt3__120__shared_ptr_pointerIPiNS_10shared_ptrIiE27__shared_ptr_default_deleteIiiEENS_9allocatorIiEEEC1B8ue170006ES1_S5_S7_, symObjAddr: 0x360, symBinAddr: 0x100001070, symSize: 0x30 }
  - { offsetInCU: 0x8B7C, offset: 0x8B7C, size: 0x8, addend: 0x0, symName: __ZNSt3__110unique_ptrIiNS_14default_deleteIiEEE7releaseB8ue170006Ev, symObjAddr: 0x390, symBinAddr: 0x1000010A0, symSize: 0x40 }
  - { offsetInCU: 0x8BB0, offset: 0x8BB0, size: 0x8, addend: 0x0, symName: __ZNSt3__110shared_ptrIiE18__enable_weak_thisB8ue170006Ez, symObjAddr: 0x3D0, symBinAddr: 0x1000010E0, symSize: 0x10 }
  - { offsetInCU: 0x8BD5, offset: 0x8BD5, size: 0x8, addend: 0x0, symName: __ZNSt3__110unique_ptrIiNS_14default_deleteIiEEED1B8ue170006Ev, symObjAddr: 0x3E0, symBinAddr: 0x1000010F0, symSize: 0x20 }
  - { offsetInCU: 0x8BFD, offset: 0x8BFD, size: 0x8, addend: 0x0, symName: __ZNSt3__110unique_ptrIiNS_14default_deleteIiEEEC2B8ue170006ILb1EvEEPi, symObjAddr: 0x400, symBinAddr: 0x100001110, symSize: 0x40 }
  - { offsetInCU: 0x8C43, offset: 0x8C43, size: 0x8, addend: 0x0, symName: __ZNSt3__117__compressed_pairIPiNS_14default_deleteIiEEEC1B8ue170006IRS1_NS_16__value_init_tagEEEOT_OT0_, symObjAddr: 0x440, symBinAddr: 0x100001150, symSize: 0x30 }
  - { offsetInCU: 0x8C99, offset: 0x8C99, size: 0x8, addend: 0x0, symName: __ZNSt3__117__compressed_pairIPiNS_14default_deleteIiEEEC2B8ue170006IRS1_NS_16__value_init_tagEEEOT_OT0_, symObjAddr: 0x480, symBinAddr: 0x100001190, symSize: 0x40 }
  - { offsetInCU: 0x8CEF, offset: 0x8CEF, size: 0x8, addend: 0x0, symName: __ZNSt3__122__compressed_pair_elemIPiLi0ELb0EEC2B8ue170006IRS1_vEEOT_, symObjAddr: 0x4C0, symBinAddr: 0x1000011D0, symSize: 0x20 }
  - { offsetInCU: 0x8D2F, offset: 0x8D2F, size: 0x8, addend: 0x0, symName: __ZNSt3__122__compressed_pair_elemINS_14default_deleteIiEELi1ELb1EEC2B8ue170006ENS_16__value_init_tagE, symObjAddr: 0x4E0, symBinAddr: 0x1000011F0, symSize: 0x10 }
  - { offsetInCU: 0x8D62, offset: 0x8D62, size: 0x8, addend: 0x0, symName: __ZNSt3__19allocatorIiEC2B8ue170006Ev, symObjAddr: 0x4F0, symBinAddr: 0x100001200, symSize: 0x20 }
  - { offsetInCU: 0x8D8A, offset: 0x8D8A, size: 0x8, addend: 0x0, symName: __ZNSt3__116__non_trivial_ifILb1ENS_9allocatorIiEEEC2B8ue170006Ev, symObjAddr: 0x510, symBinAddr: 0x100001220, symSize: 0x10 }
  - { offsetInCU: 0x8DB2, offset: 0x8DB2, size: 0x8, addend: 0x0, symName: __ZNSt3__120__shared_ptr_pointerIPiNS_10shared_ptrIiE27__shared_ptr_default_deleteIiiEENS_9allocatorIiEEEC2B8ue170006ES1_S5_S7_, symObjAddr: 0x520, symBinAddr: 0x100001230, symSize: 0x90 }
  - { offsetInCU: 0x8E04, offset: 0x8E04, size: 0x8, addend: 0x0, symName: __ZNSt3__119__shared_weak_countC2B8ue170006El, symObjAddr: 0x5B0, symBinAddr: 0x1000012C0, symSize: 0x50 }
  - { offsetInCU: 0x8E3F, offset: 0x8E3F, size: 0x8, addend: 0x0, symName: __ZNSt3__117__compressed_pairIPiNS_10shared_ptrIiE27__shared_ptr_default_deleteIiiEEEC1B8ue170006IRS1_S5_EEOT_OT0_, symObjAddr: 0x600, symBinAddr: 0x100001310, symSize: 0x30 }
  - { offsetInCU: 0x8E9F, offset: 0x8E9F, size: 0x8, addend: 0x0, symName: __ZNSt3__117__compressed_pairINS0_IPiNS_10shared_ptrIiE27__shared_ptr_default_deleteIiiEEEENS_9allocatorIiEEEC1B8ue170006IS6_S8_EEOT_OT0_, symObjAddr: 0x630, symBinAddr: 0x100001340, symSize: 0x30 }
  - { offsetInCU: 0x8EF6, offset: 0x8EF6, size: 0x8, addend: 0x0, symName: __ZNSt3__120__shared_ptr_pointerIPiNS_10shared_ptrIiE27__shared_ptr_default_deleteIiiEENS_9allocatorIiEEED1Ev, symObjAddr: 0x660, symBinAddr: 0x100001370, symSize: 0x20 }
  - { offsetInCU: 0x8F21, offset: 0x8F21, size: 0x8, addend: 0x0, symName: __ZNSt3__120__shared_ptr_pointerIPiNS_10shared_ptrIiE27__shared_ptr_default_deleteIiiEENS_9allocatorIiEEED0Ev, symObjAddr: 0x680, symBinAddr: 0x100001390, symSize: 0x30 }
  - { offsetInCU: 0x8F4C, offset: 0x8F4C, size: 0x8, addend: 0x0, symName: __ZNSt3__120__shared_ptr_pointerIPiNS_10shared_ptrIiE27__shared_ptr_default_deleteIiiEENS_9allocatorIiEEE16__on_zero_sharedEv, symObjAddr: 0x6B0, symBinAddr: 0x1000013C0, symSize: 0x70 }
  - { offsetInCU: 0x8F73, offset: 0x8F73, size: 0x8, addend: 0x0, symName: __ZNKSt3__120__shared_ptr_pointerIPiNS_10shared_ptrIiE27__shared_ptr_default_deleteIiiEENS_9allocatorIiEEE13__get_deleterERKSt9type_info, symObjAddr: 0x720, symBinAddr: 0x100001430, symSize: 0x70 }
  - { offsetInCU: 0x8FA7, offset: 0x8FA7, size: 0x8, addend: 0x0, symName: __ZNSt3__120__shared_ptr_pointerIPiNS_10shared_ptrIiE27__shared_ptr_default_deleteIiiEENS_9allocatorIiEEE21__on_zero_shared_weakEv, symObjAddr: 0x790, symBinAddr: 0x1000014A0, symSize: 0x60 }
  - { offsetInCU: 0x8FE8, offset: 0x8FE8, size: 0x8, addend: 0x0, symName: __ZNSt3__114__shared_countC2B8ue170006El, symObjAddr: 0x7F0, symBinAddr: 0x100001500, symSize: 0x30 }
  - { offsetInCU: 0x901E, offset: 0x901E, size: 0x8, addend: 0x0, symName: __ZNSt3__117__compressed_pairIPiNS_10shared_ptrIiE27__shared_ptr_default_deleteIiiEEEC2B8ue170006IRS1_S5_EEOT_OT0_, symObjAddr: 0x820, symBinAddr: 0x100001530, symSize: 0x40 }
  - { offsetInCU: 0x9074, offset: 0x9074, size: 0x8, addend: 0x0, symName: __ZNSt3__122__compressed_pair_elemINS_10shared_ptrIiE27__shared_ptr_default_deleteIiiEELi1ELb1EEC2B8ue170006IS4_vEEOT_, symObjAddr: 0x860, symBinAddr: 0x100001570, symSize: 0x10 }
  - { offsetInCU: 0x90B4, offset: 0x90B4, size: 0x8, addend: 0x0, symName: __ZNSt3__117__compressed_pairINS0_IPiNS_10shared_ptrIiE27__shared_ptr_default_deleteIiiEEEENS_9allocatorIiEEEC2B8ue170006IS6_S8_EEOT_OT0_, symObjAddr: 0x870, symBinAddr: 0x100001580, symSize: 0x40 }
  - { offsetInCU: 0x910A, offset: 0x910A, size: 0x8, addend: 0x0, symName: __ZNSt3__122__compressed_pair_elemINS_17__compressed_pairIPiNS_10shared_ptrIiE27__shared_ptr_default_deleteIiiEEEELi0ELb0EEC2B8ue170006IS7_vEEOT_, symObjAddr: 0x8B0, symBinAddr: 0x1000015C0, symSize: 0x20 }
  - { offsetInCU: 0x914A, offset: 0x914A, size: 0x8, addend: 0x0, symName: __ZNSt3__122__compressed_pair_elemINS_9allocatorIiEELi1ELb1EEC2B8ue170006IS2_vEEOT_, symObjAddr: 0x8D0, symBinAddr: 0x1000015E0, symSize: 0x10 }
  - { offsetInCU: 0x918B, offset: 0x918B, size: 0x8, addend: 0x0, symName: __ZNSt3__120__shared_ptr_pointerIPiNS_10shared_ptrIiE27__shared_ptr_default_deleteIiiEENS_9allocatorIiEEED2Ev, symObjAddr: 0x8E0, symBinAddr: 0x1000015F0, symSize: 0x20 }
  - { offsetInCU: 0x91B6, offset: 0x91B6, size: 0x8, addend: 0x0, symName: __ZNSt3__117__compressed_pairINS0_IPiNS_10shared_ptrIiE27__shared_ptr_default_deleteIiiEEEENS_9allocatorIiEEE5firstB8ue170006Ev, symObjAddr: 0x900, symBinAddr: 0x100001610, symSize: 0x20 }
  - { offsetInCU: 0x91DB, offset: 0x91DB, size: 0x8, addend: 0x0, symName: __ZNSt3__117__compressed_pairIPiNS_10shared_ptrIiE27__shared_ptr_default_deleteIiiEEE6secondB8ue170006Ev, symObjAddr: 0x920, symBinAddr: 0x100001630, symSize: 0x20 }
  - { offsetInCU: 0x9200, offset: 0x9200, size: 0x8, addend: 0x0, symName: __ZNKSt3__114default_deleteIiEclB8ue170006EPi, symObjAddr: 0x940, symBinAddr: 0x100001650, symSize: 0x40 }
  - { offsetInCU: 0x9233, offset: 0x9233, size: 0x8, addend: 0x0, symName: __ZNSt3__117__compressed_pairIPiNS_10shared_ptrIiE27__shared_ptr_default_deleteIiiEEE5firstB8ue170006Ev, symObjAddr: 0x980, symBinAddr: 0x100001690, symSize: 0x20 }
  - { offsetInCU: 0x9258, offset: 0x9258, size: 0x8, addend: 0x0, symName: __ZNSt3__122__compressed_pair_elemINS_17__compressed_pairIPiNS_10shared_ptrIiE27__shared_ptr_default_deleteIiiEEEELi0ELb0EE5__getB8ue170006Ev, symObjAddr: 0x9A0, symBinAddr: 0x1000016B0, symSize: 0x10 }
  - { offsetInCU: 0x927D, offset: 0x927D, size: 0x8, addend: 0x0, symName: __ZNSt3__122__compressed_pair_elemINS_10shared_ptrIiE27__shared_ptr_default_deleteIiiEELi1ELb1EE5__getB8ue170006Ev, symObjAddr: 0x9B0, symBinAddr: 0x1000016C0, symSize: 0x10 }
  - { offsetInCU: 0x92A2, offset: 0x92A2, size: 0x8, addend: 0x0, symName: __ZNSt3__122__compressed_pair_elemIPiLi0ELb0EE5__getB8ue170006Ev, symObjAddr: 0x9C0, symBinAddr: 0x1000016D0, symSize: 0x10 }
  - { offsetInCU: 0x92E7, offset: 0x92E7, size: 0x8, addend: 0x0, symName: __ZNKSt9type_infoeqB8ue170006ERKS_, symObjAddr: 0x9D0, symBinAddr: 0x1000016E0, symSize: 0x40 }
  - { offsetInCU: 0x9344, offset: 0x9344, size: 0x8, addend: 0x0, symName: __ZNKSt3__117__compressed_pairINS0_IPiNS_10shared_ptrIiE27__shared_ptr_default_deleteIiiEEEENS_9allocatorIiEEE5firstB8ue170006Ev, symObjAddr: 0xA10, symBinAddr: 0x100001720, symSize: 0x20 }
  - { offsetInCU: 0x9369, offset: 0x9369, size: 0x8, addend: 0x0, symName: __ZNKSt3__117__compressed_pairIPiNS_10shared_ptrIiE27__shared_ptr_default_deleteIiiEEE6secondB8ue170006Ev, symObjAddr: 0xA30, symBinAddr: 0x100001740, symSize: 0x20 }
  - { offsetInCU: 0x938E, offset: 0x938E, size: 0x8, addend: 0x0, symName: __ZNKSt3__122__compressed_pair_elemINS_17__compressed_pairIPiNS_10shared_ptrIiE27__shared_ptr_default_deleteIiiEEEELi0ELb0EE5__getB8ue170006Ev, symObjAddr: 0xA50, symBinAddr: 0x100001760, symSize: 0x10 }
  - { offsetInCU: 0x93B3, offset: 0x93B3, size: 0x8, addend: 0x0, symName: __ZNKSt3__122__compressed_pair_elemINS_10shared_ptrIiE27__shared_ptr_default_deleteIiiEELi1ELb1EE5__getB8ue170006Ev, symObjAddr: 0xA60, symBinAddr: 0x100001770, symSize: 0x10 }
  - { offsetInCU: 0x93D8, offset: 0x93D8, size: 0x8, addend: 0x0, symName: __ZNSt3__117__compressed_pairINS0_IPiNS_10shared_ptrIiE27__shared_ptr_default_deleteIiiEEEENS_9allocatorIiEEE6secondB8ue170006Ev, symObjAddr: 0xA70, symBinAddr: 0x100001780, symSize: 0x20 }
  - { offsetInCU: 0x9424, offset: 0x9424, size: 0x8, addend: 0x0, symName: __ZNSt3__19allocatorINS_20__shared_ptr_pointerIPiNS_10shared_ptrIiE27__shared_ptr_default_deleteIiiEENS0_IiEEEEEC1B8ue170006IiEERKNS0_IT_EE, symObjAddr: 0xA90, symBinAddr: 0x1000017A0, symSize: 0x30 }
  - { offsetInCU: 0x9461, offset: 0x9461, size: 0x8, addend: 0x0, symName: __ZNSt3__19allocatorINS_20__shared_ptr_pointerIPiNS_10shared_ptrIiE27__shared_ptr_default_deleteIiiEENS0_IiEEEEE10deallocateB8ue170006EPS8_m, symObjAddr: 0xAC0, symBinAddr: 0x1000017D0, symSize: 0x40 }
  - { offsetInCU: 0x94A2, offset: 0x94A2, size: 0x8, addend: 0x0, symName: __ZNSt3__114pointer_traitsIPNS_20__shared_ptr_pointerIPiNS_10shared_ptrIiE27__shared_ptr_default_deleteIiiEENS_9allocatorIiEEEEE10pointer_toB8ue170006ERS9_, symObjAddr: 0xB00, symBinAddr: 0x100001810, symSize: 0x10 }
  - { offsetInCU: 0x94C5, offset: 0x94C5, size: 0x8, addend: 0x0, symName: __ZNSt3__122__compressed_pair_elemINS_9allocatorIiEELi1ELb1EE5__getB8ue170006Ev, symObjAddr: 0xB10, symBinAddr: 0x100001820, symSize: 0x10 }
  - { offsetInCU: 0x94E9, offset: 0x94E9, size: 0x8, addend: 0x0, symName: __ZNSt3__19allocatorINS_20__shared_ptr_pointerIPiNS_10shared_ptrIiE27__shared_ptr_default_deleteIiiEENS0_IiEEEEEC2B8ue170006IiEERKNS0_IT_EE, symObjAddr: 0xB20, symBinAddr: 0x100001830, symSize: 0x20 }
  - { offsetInCU: 0x9525, offset: 0x9525, size: 0x8, addend: 0x0, symName: __ZNSt3__116__non_trivial_ifILb1ENS_9allocatorINS_20__shared_ptr_pointerIPiNS_10shared_ptrIiE27__shared_ptr_default_deleteIiiEENS1_IiEEEEEEEC2B8ue170006Ev, symObjAddr: 0xB40, symBinAddr: 0x100001850, symSize: 0x10 }
  - { offsetInCU: 0x954E, offset: 0x954E, size: 0x8, addend: 0x0, symName: __ZNSt3__117__compressed_pairIPiNS_14default_deleteIiEEE5firstB8ue170006Ev, symObjAddr: 0xC70, symBinAddr: 0x100001980, symSize: 0x20 }
  - { offsetInCU: 0x9572, offset: 0x9572, size: 0x8, addend: 0x0, symName: __ZNSt3__110unique_ptrIiNS_14default_deleteIiEEED2B8ue170006Ev, symObjAddr: 0xC90, symBinAddr: 0x1000019A0, symSize: 0x20 }
  - { offsetInCU: 0x959B, offset: 0x959B, size: 0x8, addend: 0x0, symName: __ZNSt3__110unique_ptrIiNS_14default_deleteIiEEE5resetB8ue170006EPi, symObjAddr: 0xCB0, symBinAddr: 0x1000019C0, symSize: 0x70 }
  - { offsetInCU: 0x95DE, offset: 0x95DE, size: 0x8, addend: 0x0, symName: __ZNSt3__117__compressed_pairIPiNS_14default_deleteIiEEE6secondB8ue170006Ev, symObjAddr: 0xD20, symBinAddr: 0x100001A30, symSize: 0x20 }
  - { offsetInCU: 0x9603, offset: 0x9603, size: 0x8, addend: 0x0, symName: __ZNSt3__122__compressed_pair_elemINS_14default_deleteIiEELi1ELb1EE5__getB8ue170006Ev, symObjAddr: 0xD40, symBinAddr: 0x100001A50, symSize: 0x10 }
  - { offsetInCU: 0x9627, offset: 0x9627, size: 0x8, addend: 0x0, symName: __ZNSt3__110shared_ptrIiED2B8ue170006Ev, symObjAddr: 0xD50, symBinAddr: 0x100001A60, symSize: 0x40 }
  - { offsetInCU: 0x9650, offset: 0x9650, size: 0x8, addend: 0x0, symName: __ZNSt3__119__shared_weak_count16__release_sharedB8ue170006Ev, symObjAddr: 0xD90, symBinAddr: 0x100001AA0, symSize: 0x40 }
  - { offsetInCU: 0x9675, offset: 0x9675, size: 0x8, addend: 0x0, symName: __ZNSt3__114__shared_count16__release_sharedB8ue170006Ev, symObjAddr: 0xDD0, symBinAddr: 0x100001AE0, symSize: 0x50 }
  - { offsetInCU: 0x9699, offset: 0x9699, size: 0x8, addend: 0x0, symName: __ZNSt3__18weak_ptrIiEC2IiEERKNS_10shared_ptrIT_EENS_9enable_ifIXsr17__compatible_withIS4_iEE5valueEPNS_5__natEE4typeE, symObjAddr: 0xE50, symBinAddr: 0x100001B60, symSize: 0x50 }
  - { offsetInCU: 0x96E8, offset: 0x96E8, size: 0x8, addend: 0x0, symName: __ZNSt3__119__shared_weak_count10__add_weakB8ue170006Ev, symObjAddr: 0xEA0, symBinAddr: 0x100001BB0, symSize: 0x20 }
  - { offsetInCU: 0x970C, offset: 0x970C, size: 0x8, addend: 0x0, symName: __ZNSt3__18weak_ptrIiED2Ev, symObjAddr: 0xEF0, symBinAddr: 0x100001C00, symSize: 0x40 }
  - { offsetInCU: 0x9737, offset: 0x9737, size: 0x8, addend: 0x0, symName: __ZNKSt3__119__shared_weak_count9use_countB8ue170006Ev, symObjAddr: 0xF30, symBinAddr: 0x100001C40, symSize: 0x20 }
  - { offsetInCU: 0x975C, offset: 0x975C, size: 0x8, addend: 0x0, symName: __ZNKSt3__114__shared_count9use_countB8ue170006Ev, symObjAddr: 0xF50, symBinAddr: 0x100001C60, symSize: 0x40 }
  - { offsetInCU: 0x9781, offset: 0x9781, size: 0x8, addend: 0x0, symName: __ZNKSt3__19basic_iosIcNS_11char_traitsIcEEE5widenB8ue170006Ec, symObjAddr: 0xFB0, symBinAddr: 0x100001CC0, symSize: 0x80 }
  - { offsetInCU: 0x97EE, offset: 0x97EE, size: 0x8, addend: 0x0, symName: __ZNKSt3__15ctypeIcE5widenB8ue170006Ec, symObjAddr: 0x1060, symBinAddr: 0x100001D70, symSize: 0x2B }
...
